target datalayout = "e-m:e-p270:32:32-p271:32:32-p272:64:64-i64:64-i128:128-f80:128-n8:16:32:64-S128"
target triple = "x86_64-pc-linux-gnu"

%"class.std::initializer_list" = type { ptr, i64 }
%"class.ZXing::PatternView" = type { ptr, i32, ptr, ptr }
%"struct.std::plus" = type { i8 }
%"struct.__gnu_cxx::__ops::_Iter_equals_val" = type { ptr }

; Function Attrs: mustprogress nounwind uwtable
define linkonce_odr noundef zeroext i1 @_ZN9__gnu_cxx5__ops16_Iter_equals_valIKiEclIPS2_EEbT_(ptr noundef nonnull align 8 dereferenceable(8) %0, ptr noundef %1) #4 comdat align 2 {
  %3 = alloca ptr, align 8
  %4 = alloca ptr, align 8
  store ptr %0, ptr %3, align 8, !tbaa !180
  store ptr %1, ptr %4, align 8, !tbaa !21
  %5 = load ptr, ptr %3, align 8
  %6 = load ptr, ptr %4, align 8, !tbaa !21
  %7 = load i32, ptr %6, align 4, !tbaa !8
  %8 = getelementptr inbounds nuw %"struct.__gnu_cxx::__ops::_Iter_equals_val", ptr %5, i32 0, i32 0
  %9 = load ptr, ptr %8, align 8, !tbaa !182
  %10 = load i32, ptr %9, align 4, !tbaa !8
  %11 = icmp eq i32 %7, %10
  ret i1 %11
}

; Function Attrs: mustprogress uwtable
define linkonce_odr noundef ptr @_ZSt9__find_ifIPKiN9__gnu_cxx5__ops16_Iter_equals_valIS0_EEET_S6_S6_T0_St26random_access_iterator_tag(ptr noundef %0, ptr noundef %1, ptr %2) #0 comdat {
  %4 = alloca ptr, align 8
  %5 = alloca %"struct.__gnu_cxx::__ops::_Iter_equals_val", align 8
  %6 = alloca ptr, align 8
  %7 = alloca ptr, align 8
  %8 = alloca i64, align 8
  %9 = alloca i32, align 4
  %10 = getelementptr inbounds nuw %"struct.__gnu_cxx::__ops::_Iter_equals_val", ptr %5, i32 0, i32 0
  store ptr %2, ptr %10, align 8
  store ptr %0, ptr %6, align 8, !tbaa !21
  store ptr %1, ptr %7, align 8, !tbaa !21
  call void @llvm.lifetime.start.p0(i64 8, ptr %8) #15
  %11 = load ptr, ptr %7, align 8, !tbaa !21
  %12 = load ptr, ptr %6, align 8, !tbaa !21
  %13 = ptrtoint ptr %11 to i64
  %14 = ptrtoint ptr %12 to i64
  %15 = sub i64 %13, %14
  %16 = sdiv exact i64 %15, 4
  %17 = ashr i64 %16, 2
  store i64 %17, ptr %8, align 8, !tbaa !23
  br label %18

18:                                               ; preds = %50, %3
  %19 = load i64, ptr %8, align 8, !tbaa !23
  %20 = icmp sgt i64 %19, 0
  br i1 %20, label %21, label %53

21:                                               ; preds = %18
  %22 = load ptr, ptr %6, align 8, !tbaa !21
  %23 = call noundef zeroext i1 @_ZN9__gnu_cxx5__ops16_Iter_equals_valIKiEclIPS2_EEbT_(ptr noundef nonnull align 8 dereferenceable(8) %5, ptr noundef %22)
  br i1 %23, label %24, label %26

24:                                               ; preds = %21
  %25 = load ptr, ptr %6, align 8, !tbaa !21
  store ptr %25, ptr %4, align 8
  store i32 1, ptr %9, align 4
  br label %87

26:                                               ; preds = %21
  %27 = load ptr, ptr %6, align 8, !tbaa !21
  %28 = getelementptr inbounds nuw i32, ptr %27, i32 1
  store ptr %28, ptr %6, align 8, !tbaa !21
  %29 = load ptr, ptr %6, align 8, !tbaa !21
  %30 = call noundef zeroext i1 @_ZN9__gnu_cxx5__ops16_Iter_equals_valIKiEclIPS2_EEbT_(ptr noundef nonnull align 8 dereferenceable(8) %5, ptr noundef %29)
  br i1 %30, label %31, label %33

31:                                               ; preds = %26
  %32 = load ptr, ptr %6, align 8, !tbaa !21
  store ptr %32, ptr %4, align 8
  store i32 1, ptr %9, align 4
  br label %87

33:                                               ; preds = %26
  %34 = load ptr, ptr %6, align 8, !tbaa !21
  %35 = getelementptr inbounds nuw i32, ptr %34, i32 1
  store ptr %35, ptr %6, align 8, !tbaa !21
  %36 = load ptr, ptr %6, align 8, !tbaa !21
  %37 = call noundef zeroext i1 @_ZN9__gnu_cxx5__ops16_Iter_equals_valIKiEclIPS2_EEbT_(ptr noundef nonnull align 8 dereferenceable(8) %5, ptr noundef %36)
  br i1 %37, label %38, label %40

38:                                               ; preds = %33
  %39 = load ptr, ptr %6, align 8, !tbaa !21
  store ptr %39, ptr %4, align 8
  store i32 1, ptr %9, align 4
  br label %87

40:                                               ; preds = %33
  %41 = load ptr, ptr %6, align 8, !tbaa !21
  %42 = getelementptr inbounds nuw i32, ptr %41, i32 1
  store ptr %42, ptr %6, align 8, !tbaa !21
  %43 = load ptr, ptr %6, align 8, !tbaa !21
  %44 = call noundef zeroext i1 @_ZN9__gnu_cxx5__ops16_Iter_equals_valIKiEclIPS2_EEbT_(ptr noundef nonnull align 8 dereferenceable(8) %5, ptr noundef %43)
  br i1 %44, label %45, label %47

45:                                               ; preds = %40
  %46 = load ptr, ptr %6, align 8, !tbaa !21
  store ptr %46, ptr %4, align 8
  store i32 1, ptr %9, align 4
  br label %87

47:                                               ; preds = %40
  %48 = load ptr, ptr %6, align 8, !tbaa !21
  %49 = getelementptr inbounds nuw i32, ptr %48, i32 1
  store ptr %49, ptr %6, align 8, !tbaa !21
  br label %50

50:                                               ; preds = %47
  %51 = load i64, ptr %8, align 8, !tbaa !23
  %52 = add nsw i64 %51, -1
  store i64 %52, ptr %8, align 8, !tbaa !23
  br label %18, !llvm.loop !177

53:                                               ; preds = %18
  %54 = load ptr, ptr %7, align 8, !tbaa !21
  %55 = load ptr, ptr %6, align 8, !tbaa !21
  %56 = ptrtoint ptr %54 to i64
  %57 = ptrtoint ptr %55 to i64
  %58 = sub i64 %56, %57
  %59 = sdiv exact i64 %58, 4
  switch i64 %59, label %85 [
    i64 3, label %60
    i64 2, label %68
    i64 1, label %76
    i64 0, label %84
  ]

60:                                               ; preds = %53
  %61 = load ptr, ptr %6, align 8, !tbaa !21
  %62 = call noundef zeroext i1 @_ZN9__gnu_cxx5__ops16_Iter_equals_valIKiEclIPS2_EEbT_(ptr noundef nonnull align 8 dereferenceable(8) %5, ptr noundef %61)
  br i1 %62, label %63, label %65

63:                                               ; preds = %60
  %64 = load ptr, ptr %6, align 8, !tbaa !21
  store ptr %64, ptr %4, align 8
  store i32 1, ptr %9, align 4
  br label %87

65:                                               ; preds = %60
  %66 = load ptr, ptr %6, align 8, !tbaa !21
  %67 = getelementptr inbounds nuw i32, ptr %66, i32 1
  store ptr %67, ptr %6, align 8, !tbaa !21
  br label %68

68:                                               ; preds = %53, %65
  %69 = load ptr, ptr %6, align 8, !tbaa !21
  %70 = call noundef zeroext i1 @_ZN9__gnu_cxx5__ops16_Iter_equals_valIKiEclIPS2_EEbT_(ptr noundef nonnull align 8 dereferenceable(8) %5, ptr noundef %69)
  br i1 %70, label %71, label %73

71:                                               ; preds = %68
  %72 = load ptr, ptr %6, align 8, !tbaa !21
  store ptr %72, ptr %4, align 8
  store i32 1, ptr %9, align 4
  br label %87

73:                                               ; preds = %68
  %74 = load ptr, ptr %6, align 8, !tbaa !21
  %75 = getelementptr inbounds nuw i32, ptr %74, i32 1
  store ptr %75, ptr %6, align 8, !tbaa !21
  br label %76

76:                                               ; preds = %53, %73
  %77 = load ptr, ptr %6, align 8, !tbaa !21
  %78 = call noundef zeroext i1 @_ZN9__gnu_cxx5__ops16_Iter_equals_valIKiEclIPS2_EEbT_(ptr noundef nonnull align 8 dereferenceable(8) %5, ptr noundef %77)
  br i1 %78, label %79, label %81

79:                                               ; preds = %76
  %80 = load ptr, ptr %6, align 8, !tbaa !21
  store ptr %80, ptr %4, align 8
  store i32 1, ptr %9, align 4
  br label %87

81:                                               ; preds = %76
  %82 = load ptr, ptr %6, align 8, !tbaa !21
  %83 = getelementptr inbounds nuw i32, ptr %82, i32 1
  store ptr %83, ptr %6, align 8, !tbaa !21
  br label %84

84:                                               ; preds = %53, %81
  br label %85

85:                                               ; preds = %53, %84
  %86 = load ptr, ptr %7, align 8, !tbaa !21
  store ptr %86, ptr %4, align 8
  store i32 1, ptr %9, align 4
  br label %87

87:                                               ; preds = %85, %79, %71, %63, %45, %38, %31, %24
  call void @llvm.lifetime.end.p0(i64 8, ptr %8) #15
  %88 = load ptr, ptr %4, align 8
  ret ptr %88
}

; Function Attrs: inlinehint mustprogress nounwind uwtable
define linkonce_odr void @_ZSt19__iterator_categoryIPKiENSt15iterator_traitsIT_E17iterator_categoryERKS3_(ptr noundef nonnull align 8 dereferenceable(8) %0) #5 comdat {
  %2 = alloca ptr, align 8
  store ptr %0, ptr %2, align 8, !tbaa !178
  ret void
}

; Function Attrs: mustprogress nounwind uwtable
define linkonce_odr void @_ZN9__gnu_cxx5__ops16_Iter_equals_valIKiEC2ERS2_(ptr noundef nonnull align 8 dereferenceable(8) %0, ptr noundef nonnull align 4 dereferenceable(4) %1) unnamed_addr #4 comdat align 2 {
  %3 = alloca ptr, align 8
  %4 = alloca ptr, align 8
  store ptr %0, ptr %3, align 8, !tbaa !180
  store ptr %1, ptr %4, align 8, !tbaa !21
  %5 = load ptr, ptr %3, align 8
  %6 = getelementptr inbounds nuw %"struct.__gnu_cxx::__ops::_Iter_equals_val", ptr %5, i32 0, i32 0
  %7 = load ptr, ptr %4, align 8, !tbaa !21
  store ptr %7, ptr %6, align 8, !tbaa !21
  ret void
}

; Function Attrs: mustprogress nounwind uwtable
define linkonce_odr noundef i64 @_ZNKSt16initializer_listIiE4sizeEv(ptr noundef nonnull align 8 dereferenceable(16) %0) #4 comdat align 2 {
  %2 = alloca ptr, align 8
  store ptr %0, ptr %2, align 8, !tbaa !19
  %3 = load ptr, ptr %2, align 8
  %4 = getelementptr inbounds nuw %"class.std::initializer_list", ptr %3, i32 0, i32 1
  %5 = load i64, ptr %4, align 8, !tbaa !14
  ret i64 %5
}

; Function Attrs: inlinehint mustprogress uwtable
define linkonce_odr noundef ptr @_ZSt9__find_ifIPKiN9__gnu_cxx5__ops16_Iter_equals_valIS0_EEET_S6_S6_T0_(ptr noundef %0, ptr noundef %1, ptr %2) #7 comdat {
  %4 = alloca %"struct.__gnu_cxx::__ops::_Iter_equals_val", align 8
  %5 = alloca ptr, align 8
  %6 = alloca ptr, align 8
  %7 = alloca %"struct.__gnu_cxx::__ops::_Iter_equals_val", align 8
  %8 = getelementptr inbounds nuw %"struct.__gnu_cxx::__ops::_Iter_equals_val", ptr %4, i32 0, i32 0
  store ptr %2, ptr %8, align 8
  store ptr %0, ptr %5, align 8, !tbaa !21
  store ptr %1, ptr %6, align 8, !tbaa !21
  %9 = load ptr, ptr %5, align 8, !tbaa !21
  %10 = load ptr, ptr %6, align 8, !tbaa !21
  call void @llvm.memcpy.p0.p0.i64(ptr align 8 %7, ptr align 8 %4, i64 8, i1 false), !tbaa.struct !176
  call void @_ZSt19__iterator_categoryIPKiENSt15iterator_traitsIT_E17iterator_categoryERKS3_(ptr noundef nonnull align 8 dereferenceable(8) %5)
  %11 = getelementptr inbounds nuw %"struct.__gnu_cxx::__ops::_Iter_equals_val", ptr %7, i32 0, i32 0
  %12 = load ptr, ptr %11, align 8
  %13 = call noundef ptr @_ZSt9__find_ifIPKiN9__gnu_cxx5__ops16_Iter_equals_valIS0_EEET_S6_S6_T0_St26random_access_iterator_tag(ptr noundef %9, ptr noundef %10, ptr %12)
  ret ptr %13
}

; Function Attrs: inlinehint mustprogress uwtable
define linkonce_odr ptr @_ZN9__gnu_cxx5__ops17__iter_equals_valIKiEENS0_16_Iter_equals_valIT_EERS4_(ptr noundef nonnull align 4 dereferenceable(4) %0) #7 comdat {
  %2 = alloca %"struct.__gnu_cxx::__ops::_Iter_equals_val", align 8
  %3 = alloca ptr, align 8
  store ptr %0, ptr %3, align 8, !tbaa !21
  %4 = load ptr, ptr %3, align 8, !tbaa !21
  call void @_ZN9__gnu_cxx5__ops16_Iter_equals_valIKiEC2ERS2_(ptr noundef nonnull align 8 dereferenceable(8) %2, ptr noundef nonnull align 4 dereferenceable(4) %4)
  %5 = getelementptr inbounds nuw %"struct.__gnu_cxx::__ops::_Iter_equals_val", ptr %2, i32 0, i32 0
  %6 = load ptr, ptr %5, align 8
  ret ptr %6
}

; Function Attrs: mustprogress nounwind uwtable
define linkonce_odr noundef ptr @_ZNKSt16initializer_listIiE5beginEv(ptr noundef nonnull align 8 dereferenceable(16) %0) #4 comdat align 2 {
  %2 = alloca ptr, align 8
  store ptr %0, ptr %2, align 8, !tbaa !19
  %3 = load ptr, ptr %2, align 8
  %4 = getelementptr inbounds nuw %"class.std::initializer_list", ptr %3, i32 0, i32 0
  %5 = load ptr, ptr %4, align 8, !tbaa !10
  ret ptr %5
}

; Function Attrs: mustprogress nounwind uwtable
define linkonce_odr noundef zeroext i16 @_ZNKSt4plusItEclERKtS2_(ptr noundef nonnull align 1 dereferenceable(1) %0, ptr noundef nonnull align 2 dereferenceable(2) %1, ptr noundef nonnull align 2 dereferenceable(2) %2) #4 comdat align 2 {
  %4 = alloca ptr, align 8
  %5 = alloca ptr, align 8
  %6 = alloca ptr, align 8
  store ptr %0, ptr %4, align 8, !tbaa !100
  store ptr %1, ptr %5, align 8, !tbaa !31
  store ptr %2, ptr %6, align 8, !tbaa !31
  %7 = load ptr, ptr %5, align 8, !tbaa !31
  %8 = load i16, ptr %7, align 2, !tbaa !87
  %9 = zext i16 %8 to i32
  %10 = load ptr, ptr %6, align 8, !tbaa !31
  %11 = load i16, ptr %10, align 2, !tbaa !87
  %12 = zext i16 %11 to i32
  %13 = add nsw i32 %9, %12
  %14 = trunc i32 %13 to i16
  ret i16 %14
}

; Function Attrs: mustprogress nounwind uwtable
define linkonce_odr noundef ptr @_ZNKSt16initializer_listIiE3endEv(ptr noundef nonnull align 8 dereferenceable(16) %0) #4 comdat align 2 {
  %2 = alloca ptr, align 8
  store ptr %0, ptr %2, align 8, !tbaa !19
  %3 = load ptr, ptr %2, align 8
  %4 = call noundef ptr @_ZNKSt16initializer_listIiE5beginEv(ptr noundef nonnull align 8 dereferenceable(16) %3) #15
  %5 = call noundef i64 @_ZNKSt16initializer_listIiE4sizeEv(ptr noundef nonnull align 8 dereferenceable(16) %3) #15
  %6 = getelementptr inbounds nuw i32, ptr %4, i64 %5
  ret ptr %6
}

; Function Attrs: inlinehint mustprogress uwtable
define linkonce_odr noundef ptr @_ZSt4findIPKiiET_S2_S2_RKT0_(ptr noundef %0, ptr noundef %1, ptr noundef nonnull align 4 dereferenceable(4) %2) #7 comdat {
  %4 = alloca ptr, align 8
  %5 = alloca ptr, align 8
  %6 = alloca ptr, align 8
  %7 = alloca %"struct.__gnu_cxx::__ops::_Iter_equals_val", align 8
  store ptr %0, ptr %4, align 8, !tbaa !21
  store ptr %1, ptr %5, align 8, !tbaa !21
  store ptr %2, ptr %6, align 8, !tbaa !21
  %8 = load ptr, ptr %4, align 8, !tbaa !21
  %9 = load ptr, ptr %5, align 8, !tbaa !21
  %10 = load ptr, ptr %6, align 8, !tbaa !21
  %11 = call ptr @_ZN9__gnu_cxx5__ops17__iter_equals_valIKiEENS0_16_Iter_equals_valIT_EERS4_(ptr noundef nonnull align 4 dereferenceable(4) %10)
  %12 = getelementptr inbounds nuw %"struct.__gnu_cxx::__ops::_Iter_equals_val", ptr %7, i32 0, i32 0
  store ptr %11, ptr %12, align 8
  %13 = getelementptr inbounds nuw %"struct.__gnu_cxx::__ops::_Iter_equals_val", ptr %7, i32 0, i32 0
  %14 = load ptr, ptr %13, align 8
  %15 = call noundef ptr @_ZSt9__find_ifIPKiN9__gnu_cxx5__ops16_Iter_equals_valIS0_EEET_S6_S6_T0_(ptr noundef %8, ptr noundef %9, ptr %14)
  ret ptr %15
}

; Function Attrs: mustprogress nounwind uwtable
define linkonce_odr noundef ptr @_ZSt5beginIiEPKT_St16initializer_listIS0_E(ptr %0, i64 %1) #4 comdat {
  %3 = alloca %"class.std::initializer_list", align 8
  %4 = getelementptr inbounds nuw { ptr, i64 }, ptr %3, i32 0, i32 0
  store ptr %0, ptr %4, align 8
  %5 = getelementptr inbounds nuw { ptr, i64 }, ptr %3, i32 0, i32 1
  store i64 %1, ptr %5, align 8
  %6 = call noundef ptr @_ZNKSt16initializer_listIiE5beginEv(ptr noundef nonnull align 8 dereferenceable(16) %3) #15
  ret ptr %6
}

; Function Attrs: inlinehint mustprogress uwtable
define linkonce_odr noundef zeroext i16 @_ZSt10accumulateIPKttSt4plusItEET0_T_S5_S4_T1_(ptr noundef %0, ptr noundef %1, i16 noundef zeroext %2) #7 comdat {
  %4 = alloca %"struct.std::plus", align 1
  %5 = alloca ptr, align 8
  %6 = alloca ptr, align 8
  %7 = alloca i16, align 2
  store ptr %0, ptr %5, align 8, !tbaa !31
  store ptr %1, ptr %6, align 8, !tbaa !31
  store i16 %2, ptr %7, align 2, !tbaa !87
  br label %8

8:                                                ; preds = %15, %3
  %9 = load ptr, ptr %5, align 8, !tbaa !31
  %10 = load ptr, ptr %6, align 8, !tbaa !31
  %11 = icmp ne ptr %9, %10
  br i1 %11, label %12, label %18

12:                                               ; preds = %8
  %13 = load ptr, ptr %5, align 8, !tbaa !31
  %14 = call noundef zeroext i16 @_ZNKSt4plusItEclERKtS2_(ptr noundef nonnull align 1 dereferenceable(1) %4, ptr noundef nonnull align 2 dereferenceable(2) %7, ptr noundef nonnull align 2 dereferenceable(2) %13)
  store i16 %14, ptr %7, align 2, !tbaa !87
  br label %15

15:                                               ; preds = %12
  %16 = load ptr, ptr %5, align 8, !tbaa !31
  %17 = getelementptr inbounds nuw i16, ptr %16, i32 1
  store ptr %17, ptr %5, align 8, !tbaa !31
  br label %8, !llvm.loop !99

18:                                               ; preds = %8
  %19 = load i16, ptr %7, align 2, !tbaa !87
  ret i16 %19
}

; Function Attrs: mustprogress nounwind uwtable
define linkonce_odr noundef ptr @_ZSt3endIiEPKT_St16initializer_listIS0_E(ptr %0, i64 %1) #4 comdat {
  %3 = alloca %"class.std::initializer_list", align 8
  %4 = getelementptr inbounds nuw { ptr, i64 }, ptr %3, i32 0, i32 0
  store ptr %0, ptr %4, align 8
  %5 = getelementptr inbounds nuw { ptr, i64 }, ptr %3, i32 0, i32 1
  store i64 %1, ptr %5, align 8
  %6 = call noundef ptr @_ZNKSt16initializer_listIiE3endEv(ptr noundef nonnull align 8 dereferenceable(16) %3) #15
  ret ptr %6
}

; Function Attrs: mustprogress uwtable
define linkonce_odr noundef ptr @_ZN5ZXing4FindIKSt16initializer_listIiEiEEDTclsr3stdE5beginfp_EERT_RKT0_(ptr noundef nonnull align 8 dereferenceable(16) %0, ptr noundef nonnull align 4 dereferenceable(4) %1) #0 comdat {
  %3 = alloca ptr, align 8
  %4 = alloca ptr, align 8
  %5 = alloca %"class.std::initializer_list", align 8
  %6 = alloca %"class.std::initializer_list", align 8
  store ptr %0, ptr %3, align 8, !tbaa !19
  store ptr %1, ptr %4, align 8, !tbaa !21
  %7 = load ptr, ptr %3, align 8, !tbaa !19
  call void @llvm.memcpy.p0.p0.i64(ptr align 8 %5, ptr align 8 %7, i64 16, i1 false), !tbaa.struct !22
  %8 = getelementptr inbounds nuw { ptr, i64 }, ptr %5, i32 0, i32 0
  %9 = load ptr, ptr %8, align 8
  %10 = getelementptr inbounds nuw { ptr, i64 }, ptr %5, i32 0, i32 1
  %11 = load i64, ptr %10, align 8
  %12 = call noundef ptr @_ZSt5beginIiEPKT_St16initializer_listIS0_E(ptr %9, i64 %11) #15
  %13 = load ptr, ptr %3, align 8, !tbaa !19
  call void @llvm.memcpy.p0.p0.i64(ptr align 8 %6, ptr align 8 %13, i64 16, i1 false), !tbaa.struct !22
  %14 = getelementptr inbounds nuw { ptr, i64 }, ptr %6, i32 0, i32 0
  %15 = load ptr, ptr %14, align 8
  %16 = getelementptr inbounds nuw { ptr, i64 }, ptr %6, i32 0, i32 1
  %17 = load i64, ptr %16, align 8
  %18 = call noundef ptr @_ZSt3endIiEPKT_St16initializer_listIS0_E(ptr %15, i64 %17) #15
  %19 = load ptr, ptr %4, align 8, !tbaa !21
  %20 = call noundef ptr @_ZSt4findIPKiiET_S2_S2_RKT0_(ptr noundef %12, ptr noundef %18, ptr noundef nonnull align 4 dereferenceable(4) %19)
  ret ptr %20
}

; Function Attrs: mustprogress uwtable
define linkonce_odr noundef zeroext i16 @_ZN5ZXing6ReduceIPKttSt4plusItEEET0_T_S6_S5_T1_(ptr noundef %0, ptr noundef %1, i16 noundef zeroext %2) #0 comdat {
  %4 = alloca ptr, align 8
  %5 = alloca ptr, align 8
  %6 = alloca i16, align 2
  store ptr %0, ptr %4, align 8, !tbaa !31
  store ptr %1, ptr %5, align 8, !tbaa !31
  store i16 %2, ptr %6, align 2, !tbaa !87
  %7 = load ptr, ptr %4, align 8, !tbaa !31
  %8 = load ptr, ptr %5, align 8, !tbaa !31
  %9 = load i16, ptr %6, align 2, !tbaa !87
  %10 = call noundef zeroext i16 @_ZSt10accumulateIPKttSt4plusItEET0_T_S5_S4_T1_(ptr noundef %7, ptr noundef %8, i16 noundef zeroext %9)
  ret i16 %10
}

; Function Attrs: mustprogress uwtable
define linkonce_odr noundef zeroext i1 @_ZN5ZXing8ContainsIiiEEDTcmclsr3stdE5beginfp_Ecvb_EERKSt16initializer_listIT_ERKT0_(ptr noundef nonnull align 8 dereferenceable(16) %0, ptr noundef nonnull align 4 dereferenceable(4) %1) #0 comdat {
  %3 = alloca ptr, align 8
  %4 = alloca ptr, align 8
  %5 = alloca %"class.std::initializer_list", align 8
  store ptr %0, ptr %3, align 8, !tbaa !19
  store ptr %1, ptr %4, align 8, !tbaa !21
  %6 = load ptr, ptr %3, align 8, !tbaa !19
  %7 = load ptr, ptr %4, align 8, !tbaa !21
  %8 = call noundef ptr @_ZN5ZXing4FindIKSt16initializer_listIiEiEEDTclsr3stdE5beginfp_EERT_RKT0_(ptr noundef nonnull align 8 dereferenceable(16) %6, ptr noundef nonnull align 4 dereferenceable(4) %7)
  %9 = load ptr, ptr %3, align 8, !tbaa !19
  call void @llvm.memcpy.p0.p0.i64(ptr align 8 %5, ptr align 8 %9, i64 16, i1 false), !tbaa.struct !22
  %10 = getelementptr inbounds nuw { ptr, i64 }, ptr %5, i32 0, i32 0
  %11 = load ptr, ptr %10, align 8
  %12 = getelementptr inbounds nuw { ptr, i64 }, ptr %5, i32 0, i32 1
  %13 = load i64, ptr %12, align 8
  %14 = call noundef ptr @_ZSt3endIiEPKT_St16initializer_listIS0_E(ptr %11, i64 %13) #15
  %15 = icmp ne ptr %8, %14
  ret i1 %15
}

; Function Attrs: mustprogress uwtable
define linkonce_odr noundef i32 @_ZNK5ZXing11PatternView3sumEi(ptr noundef nonnull align 8 dereferenceable(32) %0, i32 noundef %1) #0 comdat align 2 {
  %3 = alloca ptr, align 8
  %4 = alloca i32, align 4
  store ptr %0, ptr %3, align 8, !tbaa !3
  store i32 %1, ptr %4, align 4, !tbaa !8
  %5 = load ptr, ptr %3, align 8
  %6 = getelementptr inbounds nuw %"class.ZXing::PatternView", ptr %5, i32 0, i32 0
  %7 = load ptr, ptr %6, align 8, !tbaa !15
  %8 = getelementptr inbounds nuw %"class.ZXing::PatternView", ptr %5, i32 0, i32 0
  %9 = load ptr, ptr %8, align 8, !tbaa !15
  %10 = load i32, ptr %4, align 4, !tbaa !8
  %11 = icmp eq i32 %10, 0
  br i1 %11, label %12, label %15

12:                                               ; preds = %2
  %13 = getelementptr inbounds nuw %"class.ZXing::PatternView", ptr %5, i32 0, i32 1
  %14 = load i32, ptr %13, align 8, !tbaa !18
  br label %17

15:                                               ; preds = %2
  %16 = load i32, ptr %4, align 4, !tbaa !8
  br label %17

17:                                               ; preds = %15, %12
  %18 = phi i32 [ %14, %12 ], [ %16, %15 ]
  %19 = sext i32 %18 to i64
  %20 = getelementptr inbounds i16, ptr %9, i64 %19
  %21 = call noundef zeroext i16 @_ZN5ZXing6ReduceIPKttSt4plusItEEET0_T_S6_S5_T1_(ptr noundef %7, ptr noundef %20, i16 noundef zeroext 0)
  %22 = zext i16 %21 to i32
  ret i32 %22
}

; Function Attrs: mustprogress uwtable
define noundef zeroext i1 @_ZN5ZXing4OneD11IsLeftGuardERKNS_11PatternViewEi(ptr noundef nonnull align 8 dereferenceable(32) %0, i32 noundef %1) #0 {
  %3 = alloca ptr, align 8
  %4 = alloca i32, align 4
  %5 = alloca %"class.std::initializer_list", align 8
  %6 = alloca [4 x i32], align 4
  %7 = alloca i32, align 4
  store ptr %0, ptr %3, align 8, !tbaa !3
  store i32 %1, ptr %4, align 4, !tbaa !8
  %8 = load i32, ptr %4, align 4, !tbaa !8
  %9 = sitofp i32 %8 to float
  %10 = load ptr, ptr %3, align 8, !tbaa !3
  %11 = call noundef i32 @_ZNK5ZXing11PatternView3sumEi(ptr noundef nonnull align 8 dereferenceable(32) %10, i32 noundef 0)
  %12 = sitofp i32 %11 to float
  %13 = fmul float %12, 5.000000e-01
  %14 = fcmp ogt float %9, %13
  call void @llvm.lifetime.start.p0(i64 16, ptr %5) #15
  call void @llvm.lifetime.start.p0(i64 16, ptr %6) #15
  call void @llvm.lifetime.start.p0(i64 4, ptr %7) #15
  br i1 %14, label %15, label %24

15:                                               ; preds = %2
  store i32 26, ptr %6, align 4, !tbaa !8
  %16 = getelementptr inbounds i32, ptr %6, i64 1
  store i32 41, ptr %16, align 4, !tbaa !8
  %17 = getelementptr inbounds i32, ptr %6, i64 2
  store i32 11, ptr %17, align 4, !tbaa !8
  %18 = getelementptr inbounds i32, ptr %6, i64 3
  store i32 14, ptr %18, align 4, !tbaa !8
  %19 = getelementptr inbounds nuw %"class.std::initializer_list", ptr %5, i32 0, i32 0
  store ptr %6, ptr %19, align 8, !tbaa !10
  %20 = getelementptr inbounds nuw %"class.std::initializer_list", ptr %5, i32 0, i32 1
  store i64 4, ptr %20, align 8, !tbaa !14
  %21 = load ptr, ptr %3, align 8, !tbaa !3
  %22 = call noundef i32 @_ZN5ZXing4OneD9RowReader20NarrowWideBitPatternERKNS_11PatternViewE(ptr noundef nonnull align 8 dereferenceable(32) %21)
  store i32 %22, ptr %7, align 4, !tbaa !8
  %23 = call noundef zeroext i1 @_ZN5ZXing8ContainsIiiEEDTcmclsr3stdE5beginfp_Ecvb_EERKSt16initializer_listIT_ERKT0_(ptr noundef nonnull align 8 dereferenceable(16) %5, ptr noundef nonnull align 4 dereferenceable(4) %7)
  br label %24

24:                                               ; preds = %15, %2
  %25 = phi i1 [ false, %2 ], [ %23, %15 ]
  call void @llvm.lifetime.end.p0(i64 4, ptr %7) #15
  call void @llvm.lifetime.end.p0(i64 16, ptr %6) #15
  call void @llvm.lifetime.end.p0(i64 16, ptr %5) #15
  ret i1 %25
}