; Function Attrs: mustprogress uwtable
define noundef zeroext i1 @_ZN5ZXing4OneD11IsLeftGuardERKNS_11PatternViewEi(ptr noundef nonnull align 8 dereferenceable(32) %0, i32 noundef %1) local_unnamed_addr #0 {
  %3 = sitofp i32 %1 to float
  %4 = load ptr, ptr %0, align 8, !tbaa !3
  %5 = getelementptr inbounds nuw i8, ptr %0, i64 8
  %6 = load i32, ptr %5, align 8
  %7 = sext i32 %6 to i64
  %8 = getelementptr inbounds i16, ptr %4, i64 %7
  %.not6.i.i.i = icmp eq i32 %6, 0
  br i1 %.not6.i.i.i, label %_ZNK5ZXing11PatternView3sumEi.exit, label %.lr.ph.i.i.i

.lr.ph.i.i.i:                                     ; preds = %2, %.lr.ph.i.i.i
  %.08.i.i.i = phi ptr [ %11, %.lr.ph.i.i.i ], [ %4, %2 ]
  %.057.i.i.i = phi i16 [ %10, %.lr.ph.i.i.i ], [ 0, %2 ]
  %9 = load i16, ptr %.08.i.i.i, align 2, !tbaa !10
  %10 = add i16 %9, %.057.i.i.i
  %11 = getelementptr inbounds nuw i8, ptr %.08.i.i.i, i64 2
  %.not.i.i.i = icmp eq ptr %11, %8
  br i1 %.not.i.i.i, label %_ZN5ZXing6ReduceIPKttSt4plusItEEET0_T_S6_S5_T1_.exit.loopexit.i, label %.lr.ph.i.i.i, !llvm.loop !12

_ZN5ZXing6ReduceIPKttSt4plusItEEET0_T_S6_S5_T1_.exit.loopexit.i: ; preds = %.lr.ph.i.i.i
  %12 = uitofp i16 %10 to float
  %13 = fmul float %12, 5.000000e-01
  br label %_ZNK5ZXing11PatternView3sumEi.exit

_ZNK5ZXing11PatternView3sumEi.exit:               ; preds = %2, %_ZN5ZXing6ReduceIPKttSt4plusItEEET0_T_S6_S5_T1_.exit.loopexit.i
  %.05.lcssa.i.i.i = phi float [ 0.000000e+00, %2 ], [ %13, %_ZN5ZXing6ReduceIPKttSt4plusItEEET0_T_S6_S5_T1_.exit.loopexit.i ]
  %14 = fcmp olt float %.05.lcssa.i.i.i, %3
  br i1 %14, label %.lr.ph.i.i.i.i.i, label %_ZN5ZXing8ContainsIiiEEDTcmclsr3stdE5beginfp_Ecvb_EERKSt16initializer_listIT_ERKT0_.exit

.lr.ph.i.i.i.i.i:                                 ; preds = %_ZNK5ZXing11PatternView3sumEi.exit
  %15 = tail call noundef i32 @_ZN5ZXing4OneD9RowReader20NarrowWideBitPatternERKNS_11PatternViewE(ptr noundef nonnull align 8 dereferenceable(32) %0)
  %16 = icmp ult i32 %15, 42
  br i1 %16, label %switch.lookup, label %_ZN5ZXing8ContainsIiiEEDTcmclsr3stdE5beginfp_Ecvb_EERKSt16initializer_listIT_ERKT0_.exit

switch.lookup:                                    ; preds = %.lr.ph.i.i.i.i.i
  %switch.cast = zext nneg i32 %15 to i42
  %switch.downshift = lshr i42 -2198956128256, %switch.cast
  %switch.masked = trunc i42 %switch.downshift to i1
  br label %_ZN5ZXing8ContainsIiiEEDTcmclsr3stdE5beginfp_Ecvb_EERKSt16initializer_listIT_ERKT0_.exit

_ZN5ZXing8ContainsIiiEEDTcmclsr3stdE5beginfp_Ecvb_EERKSt16initializer_listIT_ERKT0_.exit: ; preds = %.lr.ph.i.i.i.i.i, %switch.lookup, %_ZNK5ZXing11PatternView3sumEi.exit
  %17 = phi i1 [ false, %_ZNK5ZXing11PatternView3sumEi.exit ], [ %switch.masked, %switch.lookup ], [ false, %.lr.ph.i.i.i.i.i ]
  ret i1 %17
}